target datalayout = "e-m:e-p270:32:32-p271:32:32-p272:64:64-i64:64-i128:128-f80:128-n8:16:32:64-S128"
target triple = "x86_64-pc-linux-gnu"

%struct.ossl_cmp_certresponse_st = type { ptr, ptr, ptr, ptr }
%struct.ossl_cmp_certrepmessage_st = type { ptr, ptr }

@.str = private unnamed_addr constant [32 x i8] c"../openssl/crypto/cmp/cmp_msg.c\00", align 1
@.str.29 = private unnamed_addr constant [24 x i8] c"expected certReqId = %d\00", align 1
@__func__.ossl_cmp_certrepmessage_get0_certresponse = private unnamed_addr constant [42 x i8] c"ossl_cmp_certrepmessage_get0_certresponse\00", align 1
@__func__.suitable_rid = private unnamed_addr constant [13 x i8] c"suitable_rid\00", align 1

; Function Attrs: nounwind uwtable
define internal i32 @suitable_rid(ptr noundef %0, i32 noundef %1) #0 {
  %3 = alloca i32, align 4
  %4 = alloca ptr, align 8
  %5 = alloca i32, align 4
  %6 = alloca i32, align 4
  %7 = alloca i32, align 4
  store ptr %0, ptr %4, align 8, !tbaa !65
  store i32 %1, ptr %5, align 4, !tbaa !20
  call void @llvm.lifetime.start.p0(i64 4, ptr %6) #6
  %8 = load i32, ptr %5, align 4, !tbaa !20
  %9 = icmp eq i32 %8, -1
  br i1 %9, label %10, label %11

10:                                               ; preds = %2
  store i32 1, ptr %3, align 4
  store i32 1, ptr %7, align 4
  br label %22

11:                                               ; preds = %2
  %12 = load ptr, ptr %4, align 8, !tbaa !65
  %13 = call i32 @ossl_cmp_asn1_get_int(ptr noundef %12)
  store i32 %13, ptr %6, align 4, !tbaa !20
  %14 = load i32, ptr %6, align 4, !tbaa !20
  %15 = icmp sle i32 %14, -2
  br i1 %15, label %16, label %17

16:                                               ; preds = %11
  call void @ERR_new()
  call void @ERR_set_debug(ptr noundef @.str, i32 noundef 1045, ptr noundef @__func__.suitable_rid)
  call void (i32, i32, ptr, ...) @ERR_set_error(i32 noundef 58, i32 noundef 108, ptr noundef null)
  store i32 0, ptr %3, align 4
  store i32 1, ptr %7, align 4
  br label %22

17:                                               ; preds = %11
  %18 = load i32, ptr %5, align 4, !tbaa !20
  %19 = load i32, ptr %6, align 4, !tbaa !20
  %20 = icmp eq i32 %18, %19
  %21 = zext i1 %20 to i32
  store i32 %21, ptr %3, align 4
  store i32 1, ptr %7, align 4
  br label %22

22:                                               ; preds = %17, %16, %10
  call void @llvm.lifetime.end.p0(i64 4, ptr %6) #6
  %23 = load i32, ptr %3, align 4
  ret i32 %23
}

; Function Attrs: inlinehint nounwind uwtable
define internal ptr @ossl_check_const_OSSL_CMP_CERTRESPONSE_sk_type(ptr noundef %0) #4 {
  %2 = alloca ptr, align 8
  store ptr %0, ptr %2, align 8, !tbaa !116
  %3 = load ptr, ptr %2, align 8, !tbaa !116
  ret ptr %3
}

; Function Attrs: nounwind uwtable
define ptr @ossl_cmp_certrepmessage_get0_certresponse(ptr noundef %0, i32 noundef %1) #0 {
  %3 = alloca ptr, align 8
  %4 = alloca ptr, align 8
  %5 = alloca i32, align 4
  %6 = alloca ptr, align 8
  %7 = alloca i32, align 4
  %8 = alloca i32, align 4
  store ptr %0, ptr %4, align 8, !tbaa !85
  store i32 %1, ptr %5, align 4, !tbaa !20
  call void @llvm.lifetime.start.p0(i64 8, ptr %6) #6
  store ptr null, ptr %6, align 8, !tbaa !87
  call void @llvm.lifetime.start.p0(i64 4, ptr %7) #6
  %9 = load ptr, ptr %4, align 8, !tbaa !85
  %10 = icmp ne ptr %9, null
  br i1 %10, label %11, label %16

11:                                               ; preds = %2
  %12 = load ptr, ptr %4, align 8, !tbaa !85
  %13 = getelementptr inbounds nuw %struct.ossl_cmp_certrepmessage_st, ptr %12, i32 0, i32 1
  %14 = load ptr, ptr %13, align 8, !tbaa !102
  %15 = icmp ne ptr %14, null
  br label %16

16:                                               ; preds = %11, %2
  %17 = phi i1 [ false, %2 ], [ %15, %11 ]
  %18 = zext i1 %17 to i32
  %19 = icmp ne i32 %18, 0
  %20 = xor i1 %19, true
  %21 = xor i1 %20, true
  %22 = zext i1 %21 to i32
  %23 = sext i32 %22 to i64
  %24 = call i64 @llvm.expect.i64(i64 %23, i64 1)
  %25 = icmp ne i64 %24, 0
  br i1 %25, label %27, label %26

26:                                               ; preds = %16
  store ptr null, ptr %3, align 8
  store i32 1, ptr %8, align 4
  br label %57

27:                                               ; preds = %16
  store i32 0, ptr %7, align 4, !tbaa !20
  br label %28

28:                                               ; preds = %52, %27
  %29 = load i32, ptr %7, align 4, !tbaa !20
  %30 = load ptr, ptr %4, align 8, !tbaa !85
  %31 = getelementptr inbounds nuw %struct.ossl_cmp_certrepmessage_st, ptr %30, i32 0, i32 1
  %32 = load ptr, ptr %31, align 8, !tbaa !102
  %33 = call ptr @ossl_check_const_OSSL_CMP_CERTRESPONSE_sk_type(ptr noundef %32)
  %34 = call i32 @OPENSSL_sk_num(ptr noundef %33)
  %35 = icmp slt i32 %29, %34
  br i1 %35, label %36, label %55

36:                                               ; preds = %28
  %37 = load ptr, ptr %4, align 8, !tbaa !85
  %38 = getelementptr inbounds nuw %struct.ossl_cmp_certrepmessage_st, ptr %37, i32 0, i32 1
  %39 = load ptr, ptr %38, align 8, !tbaa !102
  %40 = call ptr @ossl_check_const_OSSL_CMP_CERTRESPONSE_sk_type(ptr noundef %39)
  %41 = load i32, ptr %7, align 4, !tbaa !20
  %42 = call ptr @OPENSSL_sk_value(ptr noundef %40, i32 noundef %41)
  store ptr %42, ptr %6, align 8, !tbaa !87
  %43 = load ptr, ptr %6, align 8, !tbaa !87
  %44 = getelementptr inbounds nuw %struct.ossl_cmp_certresponse_st, ptr %43, i32 0, i32 0
  %45 = load ptr, ptr %44, align 8, !tbaa !92
  %46 = load i32, ptr %5, align 4, !tbaa !20
  %47 = call i32 @suitable_rid(ptr noundef %45, i32 noundef %46)
  %48 = icmp ne i32 %47, 0
  br i1 %48, label %49, label %51

49:                                               ; preds = %36
  %50 = load ptr, ptr %6, align 8, !tbaa !87
  store ptr %50, ptr %3, align 8
  store i32 1, ptr %8, align 4
  br label %57

51:                                               ; preds = %36
  br label %52

52:                                               ; preds = %51
  %53 = load i32, ptr %7, align 4, !tbaa !20
  %54 = add nsw i32 %53, 1
  store i32 %54, ptr %7, align 4, !tbaa !20
  br label %28, !llvm.loop !172

55:                                               ; preds = %28
  call void @ERR_new()
  call void @ERR_set_debug(ptr noundef @.str, i32 noundef 1098, ptr noundef @__func__.ossl_cmp_certrepmessage_get0_certresponse)
  %56 = load i32, ptr %5, align 4, !tbaa !20
  call void (i32, i32, ptr, ...) @ERR_set_error(i32 noundef 58, i32 noundef 113, ptr noundef @.str.29, i32 noundef %56)
  store ptr null, ptr %3, align 8
  store i32 1, ptr %8, align 4
  br label %57

57:                                               ; preds = %55, %49, %26
  call void @llvm.lifetime.end.p0(i64 4, ptr %7) #6
  call void @llvm.lifetime.end.p0(i64 8, ptr %6) #6
  %58 = load ptr, ptr %3, align 8
  ret ptr %58
}