; Function Attrs: nounwind uwtable
define ptr @ossl_cmp_certrepmessage_get0_certresponse(ptr noundef readonly captures(address_is_null) %0, i32 noundef %1) local_unnamed_addr #0 {
  %.not = icmp eq ptr %0, null
  br i1 %.not, label %.critedge, label %3

3:                                                ; preds = %2
  %4 = getelementptr inbounds nuw i8, ptr %0, i64 8
  %5 = load ptr, ptr %4, align 8, !tbaa !71
  %.not19 = icmp eq ptr %5, null
  br i1 %.not19, label %.critedge, label %.preheader, !prof !18

.preheader:                                       ; preds = %3
  %6 = tail call i32 @OPENSSL_sk_num(ptr noundef nonnull %5) #7
  %7 = icmp sgt i32 %6, 0
  br i1 %7, label %.lr.ph, label %._crit_edge

.lr.ph:                                           ; preds = %.preheader
  %8 = icmp eq i32 %1, -1
  br i1 %8, label %.lr.ph.split.us, label %.lr.ph.split

.lr.ph.split.us:                                  ; preds = %.lr.ph
  %9 = load ptr, ptr %4, align 8, !tbaa !71
  %10 = tail call ptr @OPENSSL_sk_value(ptr noundef %9, i32 noundef 0) #7
  br label %.critedge

.lr.ph.split:                                     ; preds = %.lr.ph, %16
  %.021 = phi i32 [ %17, %16 ], [ 0, %.lr.ph ]
  %11 = load ptr, ptr %4, align 8, !tbaa !71
  %12 = tail call ptr @OPENSSL_sk_value(ptr noundef %11, i32 noundef %.021) #7
  %13 = load ptr, ptr %12, align 8, !tbaa !61
  %14 = tail call i32 @ossl_cmp_asn1_get_int(ptr noundef %13) #7
  %15 = icmp slt i32 %14, -1
  br i1 %15, label %suitable_rid.exit.thread, label %suitable_rid.exit

suitable_rid.exit.thread:                         ; preds = %.lr.ph.split
  tail call void @ERR_new() #7
  tail call void @ERR_set_debug(ptr noundef nonnull @.str, i32 noundef 1045, ptr noundef nonnull @__func__.suitable_rid) #7
  tail call void (i32, i32, ptr, ...) @ERR_set_error(i32 noundef 58, i32 noundef 108, ptr noundef null) #7
  br label %16

suitable_rid.exit:                                ; preds = %.lr.ph.split
  %.not20 = icmp eq i32 %1, %14
  br i1 %.not20, label %.critedge, label %16

16:                                               ; preds = %suitable_rid.exit.thread, %suitable_rid.exit
  %17 = add nuw nsw i32 %.021, 1
  %18 = load ptr, ptr %4, align 8, !tbaa !71
  %19 = tail call i32 @OPENSSL_sk_num(ptr noundef %18) #7
  %20 = icmp slt i32 %17, %19
  br i1 %20, label %.lr.ph.split, label %._crit_edge, !llvm.loop !112

._crit_edge:                                      ; preds = %16, %.preheader
  tail call void @ERR_new() #7
  tail call void @ERR_set_debug(ptr noundef nonnull @.str, i32 noundef 1098, ptr noundef nonnull @__func__.ossl_cmp_certrepmessage_get0_certresponse) #7
  tail call void (i32, i32, ptr, ...) @ERR_set_error(i32 noundef 58, i32 noundef 113, ptr noundef nonnull @.str.29, i32 noundef %1) #7
  br label %.critedge

.critedge:                                        ; preds = %suitable_rid.exit, %.lr.ph.split.us, %2, %3, %._crit_edge
  %.011 = phi ptr [ null, %._crit_edge ], [ null, %3 ], [ null, %2 ], [ %10, %.lr.ph.split.us ], [ %12, %suitable_rid.exit ]
  ret ptr %.011
}